; Function Attrs: nounwind uwtable
define hidden i32 @_ir_LOOP_END(ptr nocapture noundef %0) local_unnamed_addr #0 {
  %2 = getelementptr inbounds i8, ptr %0, i64 248
  %3 = load i32, ptr %2, align 8
  %4 = getelementptr inbounds i8, ptr %0, i64 8
  %5 = load i32, ptr %4, align 8
  %6 = getelementptr inbounds i8, ptr %0, i64 12
  %7 = load i32, ptr %6, align 4
  %.not.i.i.i = icmp slt i32 %5, %7
  %.pre.i.i = load ptr, ptr %0, align 8
  br i1 %.not.i.i.i, label %ir_emit1.exit, label %8

8:                                                ; preds = %1
  %9 = getelementptr inbounds i8, ptr %0, i64 20
  %10 = load i32, ptr %9, align 4
  %11 = icmp slt i32 %7, 4096
  %12 = shl nsw i32 %7, 1
  %13 = icmp ult i32 %7, 8192
  %14 = add nuw nsw i32 %7, 4096
  %spec.select.i.i.i.i = select i1 %13, i32 8192, i32 %14
  %.sink.i.i.i.i = select i1 %11, i32 %12, i32 %spec.select.i.i.i.i
  store i32 %.sink.i.i.i.i, ptr %6, align 4
  %15 = sext i32 %10 to i64
  %16 = sub nsw i64 0, %15
  %17 = getelementptr inbounds %struct._ir_insn, ptr %.pre.i.i, i64 %16
  %18 = add nsw i32 %10, %.sink.i.i.i.i
  %19 = sext i32 %18 to i64
  %20 = shl nsw i64 %19, 4
  %21 = tail call ptr @_erealloc(ptr noundef %17, i64 noundef %20) #24
  %22 = load i32, ptr %9, align 4
  %23 = sext i32 %22 to i64
  %24 = getelementptr inbounds %struct._ir_insn, ptr %21, i64 %23
  store ptr %24, ptr %0, align 8
  br label %ir_emit1.exit

ir_emit1.exit:                                    ; preds = %1, %8
  %25 = phi ptr [ %.pre.i.i, %1 ], [ %24, %8 ]
  %26 = add nsw i32 %5, 1
  store i32 %26, ptr %4, align 8
  %27 = sext i32 %5 to i64
  %28 = getelementptr inbounds %struct._ir_insn, ptr %25, i64 %27
  store i32 99, ptr %28, align 8
  %29 = getelementptr inbounds i8, ptr %28, i64 4
  store i32 %3, ptr %29, align 4
  %30 = getelementptr inbounds i8, ptr %28, i64 8
  store i32 0, ptr %30, align 8
  %31 = getelementptr inbounds i8, ptr %28, i64 12
  store i32 0, ptr %31, align 4
  store i32 0, ptr %2, align 8
  ret i32 %5
}